target datalayout = "e-m:e-p270:32:32-p271:32:32-p272:64:64-i64:64-i128:128-f80:128-n8:16:32:64-S128"
target triple = "x86_64-pc-linux-gnu"

%"class.llvm::DenseMap" = type <{ ptr, i32, i32, i32, [4 x i8] }>
%"class.(anonymous namespace)::SDiagsMerger" = type { %"class.clang::serialized_diags::SerializedDiagnosticReader", ptr, %"class.llvm::DenseMap", %"class.llvm::DenseMap", %"class.llvm::DenseMap" }
%"class.clang::serialized_diags::SerializedDiagnosticReader" = type { ptr }
%"struct.llvm::detail::DenseMapPair" = type { %"struct.std::pair" }
%"struct.std::pair" = type { i32, i32 }

; Function Attrs: mustprogress nounwind uwtable
define linkonce_odr hidden noundef ptr @_ZNK4llvm8DenseMapIjjNS_12DenseMapInfoIjvEENS_6detail12DenseMapPairIjjEEE10getBucketsEv(ptr noundef nonnull align 8 dereferenceable(20) %0) #0 comdat align 2 {
  %2 = alloca ptr, align 8
  store ptr %0, ptr %2, align 8
  %3 = load ptr, ptr %2, align 8
  %4 = getelementptr inbounds nuw %"class.llvm::DenseMap", ptr %3, i32 0, i32 0
  %5 = load ptr, ptr %4, align 8
  ret ptr %5
}

; Function Attrs: mustprogress nounwind uwtable
define linkonce_odr hidden noundef i32 @_ZN4llvm12DenseMapInfoIjvE15getTombstoneKeyEv() #0 comdat align 2 {
  ret i32 -2
}

; Function Attrs: mustprogress nounwind uwtable
define linkonce_odr hidden noundef i32 @_ZN4llvm12DenseMapInfoIjvE11getEmptyKeyEv() #0 comdat align 2 {
  ret i32 -1
}

; Function Attrs: mustprogress nounwind uwtable
define linkonce_odr hidden noundef i32 @_ZNK4llvm8DenseMapIjjNS_12DenseMapInfoIjvEENS_6detail12DenseMapPairIjjEEE13getNumBucketsEv(ptr noundef nonnull align 8 dereferenceable(20) %0) #0 comdat align 2 {
  %2 = alloca ptr, align 8
  store ptr %0, ptr %2, align 8
  %3 = load ptr, ptr %2, align 8
  %4 = getelementptr inbounds nuw %"class.llvm::DenseMap", ptr %3, i32 0, i32 3
  %5 = load i32, ptr %4, align 8
  ret i32 %5
}

; Function Attrs: mustprogress nounwind uwtable
define linkonce_odr hidden noundef nonnull align 4 dereferenceable(4) ptr @_ZN4llvm6detail12DenseMapPairIjjE9getSecondEv(ptr noundef nonnull align 4 dereferenceable(8) %0) #0 comdat align 2 {
  %2 = alloca ptr, align 8
  store ptr %0, ptr %2, align 8
  %3 = load ptr, ptr %2, align 8
  %4 = getelementptr inbounds nuw %"struct.std::pair", ptr %3, i32 0, i32 1
  ret ptr %4
}

; Function Attrs: mustprogress nounwind uwtable
define linkonce_odr hidden noundef zeroext i1 @_ZN4llvm12DenseMapInfoIjvE7isEqualERKjS3_(ptr noundef nonnull align 4 dereferenceable(4) %0, ptr noundef nonnull align 4 dereferenceable(4) %1) #0 comdat align 2 {
  %3 = alloca ptr, align 8
  %4 = alloca ptr, align 8
  store ptr %0, ptr %3, align 8
  store ptr %1, ptr %4, align 8
  %5 = load ptr, ptr %3, align 8
  %6 = load i32, ptr %5, align 4
  %7 = load ptr, ptr %4, align 8
  %8 = load i32, ptr %7, align 4
  %9 = icmp eq i32 %6, %8
  ret i1 %9
}

; Function Attrs: mustprogress nounwind uwtable
define linkonce_odr hidden noundef nonnull align 4 dereferenceable(4) ptr @_ZN4llvm6detail12DenseMapPairIjjE8getFirstEv(ptr noundef nonnull align 4 dereferenceable(8) %0) #0 comdat align 2 {
  %2 = alloca ptr, align 8
  store ptr %0, ptr %2, align 8
  %3 = load ptr, ptr %2, align 8
  %4 = getelementptr inbounds nuw %"struct.std::pair", ptr %3, i32 0, i32 0
  ret ptr %4
}

; Function Attrs: mustprogress nounwind uwtable
define linkonce_odr hidden noundef ptr @_ZN4llvm12DenseMapBaseINS_8DenseMapIjjNS_12DenseMapInfoIjvEENS_6detail12DenseMapPairIjjEEEEjjS3_S6_E13getBucketsEndEv(ptr noundef nonnull align 1 dereferenceable(1) %0) #0 comdat align 2 {
  %2 = alloca ptr, align 8
  store ptr %0, ptr %2, align 8
  %3 = load ptr, ptr %2, align 8
  %4 = call noundef ptr @_ZN4llvm12DenseMapBaseINS_8DenseMapIjjNS_12DenseMapInfoIjvEENS_6detail12DenseMapPairIjjEEEEjjS3_S6_E10getBucketsEv(ptr noundef nonnull align 1 dereferenceable(1) %3)
  %5 = call noundef i32 @_ZNK4llvm12DenseMapBaseINS_8DenseMapIjjNS_12DenseMapInfoIjvEENS_6detail12DenseMapPairIjjEEEEjjS3_S6_E13getNumBucketsEv(ptr noundef nonnull align 1 dereferenceable(1) %3)
  %6 = zext i32 %5 to i64
  %7 = getelementptr inbounds %"struct.llvm::detail::DenseMapPair", ptr %4, i64 %6
  ret ptr %7
}

; Function Attrs: mustprogress nounwind uwtable
define linkonce_odr hidden noundef ptr @_ZN4llvm12DenseMapBaseINS_8DenseMapIjjNS_12DenseMapInfoIjvEENS_6detail12DenseMapPairIjjEEEEjjS3_S6_E10getBucketsEv(ptr noundef nonnull align 1 dereferenceable(1) %0) #0 comdat align 2 {
  %2 = alloca ptr, align 8
  store ptr %0, ptr %2, align 8
  %3 = load ptr, ptr %2, align 8
  %4 = call noundef ptr @_ZNK4llvm8DenseMapIjjNS_12DenseMapInfoIjvEENS_6detail12DenseMapPairIjjEEE10getBucketsEv(ptr noundef nonnull align 8 dereferenceable(20) %3)
  ret ptr %4
}

; Function Attrs: mustprogress nounwind uwtable
define linkonce_odr hidden noundef i32 @_ZN4llvm12DenseMapBaseINS_8DenseMapIjjNS_12DenseMapInfoIjvEENS_6detail12DenseMapPairIjjEEEEjjS3_S6_E15getTombstoneKeyEv() #0 comdat align 2 {
  %1 = call noundef i32 @_ZN4llvm12DenseMapInfoIjvE15getTombstoneKeyEv()
  ret i32 %1
}

; Function Attrs: mustprogress nounwind uwtable
define linkonce_odr hidden noundef i32 @_ZN4llvm12DenseMapBaseINS_8DenseMapIjjNS_12DenseMapInfoIjvEENS_6detail12DenseMapPairIjjEEEEjjS3_S6_E11getEmptyKeyEv() #0 comdat align 2 {
  %1 = call noundef i32 @_ZN4llvm12DenseMapInfoIjvE11getEmptyKeyEv()
  ret i32 %1
}

; Function Attrs: mustprogress nounwind uwtable
define linkonce_odr hidden noundef i32 @_ZNK4llvm12DenseMapBaseINS_8DenseMapIjjNS_12DenseMapInfoIjvEENS_6detail12DenseMapPairIjjEEEEjjS3_S6_E13getNumBucketsEv(ptr noundef nonnull align 1 dereferenceable(1) %0) #0 comdat align 2 {
  %2 = alloca ptr, align 8
  store ptr %0, ptr %2, align 8
  %3 = load ptr, ptr %2, align 8
  %4 = call noundef i32 @_ZNK4llvm8DenseMapIjjNS_12DenseMapInfoIjvEENS_6detail12DenseMapPairIjjEEE13getNumBucketsEv(ptr noundef nonnull align 8 dereferenceable(20) %3)
  ret i32 %4
}

; Function Attrs: mustprogress nounwind uwtable
define linkonce_odr hidden void @_ZN4llvm12DenseMapBaseINS_8DenseMapIjjNS_12DenseMapInfoIjvEENS_6detail12DenseMapPairIjjEEEEjjS3_S6_E10destroyAllEv(ptr noundef nonnull align 1 dereferenceable(1) %0) #0 comdat align 2 {
  %2 = alloca ptr, align 8
  %3 = alloca i32, align 4
  %4 = alloca i32, align 4
  %5 = alloca ptr, align 8
  %6 = alloca ptr, align 8
  store ptr %0, ptr %2, align 8
  %7 = load ptr, ptr %2, align 8
  %8 = call noundef i32 @_ZNK4llvm12DenseMapBaseINS_8DenseMapIjjNS_12DenseMapInfoIjvEENS_6detail12DenseMapPairIjjEEEEjjS3_S6_E13getNumBucketsEv(ptr noundef nonnull align 1 dereferenceable(1) %7)
  %9 = icmp eq i32 %8, 0
  br i1 %9, label %10, label %11

10:                                               ; preds = %1
  br label %37

11:                                               ; preds = %1
  %12 = call noundef i32 @_ZN4llvm12DenseMapBaseINS_8DenseMapIjjNS_12DenseMapInfoIjvEENS_6detail12DenseMapPairIjjEEEEjjS3_S6_E11getEmptyKeyEv()
  store i32 %12, ptr %3, align 4
  %13 = call noundef i32 @_ZN4llvm12DenseMapBaseINS_8DenseMapIjjNS_12DenseMapInfoIjvEENS_6detail12DenseMapPairIjjEEEEjjS3_S6_E15getTombstoneKeyEv()
  store i32 %13, ptr %4, align 4
  %14 = call noundef ptr @_ZN4llvm12DenseMapBaseINS_8DenseMapIjjNS_12DenseMapInfoIjvEENS_6detail12DenseMapPairIjjEEEEjjS3_S6_E10getBucketsEv(ptr noundef nonnull align 1 dereferenceable(1) %7)
  store ptr %14, ptr %5, align 8
  %15 = call noundef ptr @_ZN4llvm12DenseMapBaseINS_8DenseMapIjjNS_12DenseMapInfoIjvEENS_6detail12DenseMapPairIjjEEEEjjS3_S6_E13getBucketsEndEv(ptr noundef nonnull align 1 dereferenceable(1) %7)
  store ptr %15, ptr %6, align 8
  br label %16

16:                                               ; preds = %34, %11
  %17 = load ptr, ptr %5, align 8
  %18 = load ptr, ptr %6, align 8
  %19 = icmp ne ptr %17, %18
  br i1 %19, label %20, label %37

20:                                               ; preds = %16
  %21 = load ptr, ptr %5, align 8
  %22 = call noundef nonnull align 4 dereferenceable(4) ptr @_ZN4llvm6detail12DenseMapPairIjjE8getFirstEv(ptr noundef nonnull align 4 dereferenceable(8) %21)
  %23 = call noundef zeroext i1 @_ZN4llvm12DenseMapInfoIjvE7isEqualERKjS3_(ptr noundef nonnull align 4 dereferenceable(4) %22, ptr noundef nonnull align 4 dereferenceable(4) %3)
  br i1 %23, label %31, label %24

24:                                               ; preds = %20
  %25 = load ptr, ptr %5, align 8
  %26 = call noundef nonnull align 4 dereferenceable(4) ptr @_ZN4llvm6detail12DenseMapPairIjjE8getFirstEv(ptr noundef nonnull align 4 dereferenceable(8) %25)
  %27 = call noundef zeroext i1 @_ZN4llvm12DenseMapInfoIjvE7isEqualERKjS3_(ptr noundef nonnull align 4 dereferenceable(4) %26, ptr noundef nonnull align 4 dereferenceable(4) %4)
  br i1 %27, label %31, label %28

28:                                               ; preds = %24
  %29 = load ptr, ptr %5, align 8
  %30 = call noundef nonnull align 4 dereferenceable(4) ptr @_ZN4llvm6detail12DenseMapPairIjjE9getSecondEv(ptr noundef nonnull align 4 dereferenceable(8) %29)
  br label %31

31:                                               ; preds = %28, %24, %20
  %32 = load ptr, ptr %5, align 8
  %33 = call noundef nonnull align 4 dereferenceable(4) ptr @_ZN4llvm6detail12DenseMapPairIjjE8getFirstEv(ptr noundef nonnull align 4 dereferenceable(8) %32)
  br label %34

34:                                               ; preds = %31
  %35 = load ptr, ptr %5, align 8
  %36 = getelementptr inbounds %"struct.llvm::detail::DenseMapPair", ptr %35, i32 1
  store ptr %36, ptr %5, align 8
  br label %16, !llvm.loop !12

37:                                               ; preds = %16, %10
  ret void
}

; Function Attrs: mustprogress nounwind uwtable
define linkonce_odr hidden void @_ZN5clang16serialized_diags26SerializedDiagnosticReaderD2Ev(ptr noundef nonnull align 8 dereferenceable(8) %0) unnamed_addr #0 comdat align 2 {
  %2 = alloca ptr, align 8
  store ptr %0, ptr %2, align 8
  ret void
}

; Function Attrs: mustprogress nounwind uwtable
define linkonce_odr hidden void @_ZN4llvm8DenseMapIjjNS_12DenseMapInfoIjvEENS_6detail12DenseMapPairIjjEEED2Ev(ptr noundef nonnull align 8 dereferenceable(20) %0) unnamed_addr #0 comdat align 2 {
  %2 = alloca ptr, align 8
  store ptr %0, ptr %2, align 8
  %3 = load ptr, ptr %2, align 8
  call void @_ZN4llvm12DenseMapBaseINS_8DenseMapIjjNS_12DenseMapInfoIjvEENS_6detail12DenseMapPairIjjEEEEjjS3_S6_E10destroyAllEv(ptr noundef nonnull align 1 dereferenceable(1) %3)
  %4 = getelementptr inbounds nuw %"class.llvm::DenseMap", ptr %3, i32 0, i32 0
  %5 = load ptr, ptr %4, align 8
  %6 = getelementptr inbounds nuw %"class.llvm::DenseMap", ptr %3, i32 0, i32 3
  %7 = load i32, ptr %6, align 8
  %8 = zext i32 %7 to i64
  %9 = mul i64 8, %8
  call void @_ZN4llvm17deallocate_bufferEPvmm(ptr noundef %5, i64 noundef %9, i64 noundef 4)
  ret void
}

; Function Attrs: mustprogress nounwind uwtable
define internal void @_ZN12_GLOBAL__N_112SDiagsMergerD2Ev(ptr noundef nonnull align 8 dereferenceable(88) %0) unnamed_addr #0 align 2 {
  %2 = alloca ptr, align 8
  store ptr %0, ptr %2, align 8
  %3 = load ptr, ptr %2, align 8
  store ptr getelementptr inbounds inrange(-16, 88) ({ [13 x ptr] }, ptr @_ZTVN12_GLOBAL__N_112SDiagsMergerE, i32 0, i32 0, i32 2), ptr %3, align 8
  %4 = getelementptr inbounds nuw %"class.(anonymous namespace)::SDiagsMerger", ptr %3, i32 0, i32 4
  call void @_ZN4llvm8DenseMapIjjNS_12DenseMapInfoIjvEENS_6detail12DenseMapPairIjjEEED2Ev(ptr noundef nonnull align 8 dereferenceable(20) %4) #13
  %5 = getelementptr inbounds nuw %"class.(anonymous namespace)::SDiagsMerger", ptr %3, i32 0, i32 3
  call void @_ZN4llvm8DenseMapIjjNS_12DenseMapInfoIjvEENS_6detail12DenseMapPairIjjEEED2Ev(ptr noundef nonnull align 8 dereferenceable(20) %5) #13
  %6 = getelementptr inbounds nuw %"class.(anonymous namespace)::SDiagsMerger", ptr %3, i32 0, i32 2
  call void @_ZN4llvm8DenseMapIjjNS_12DenseMapInfoIjvEENS_6detail12DenseMapPairIjjEEED2Ev(ptr noundef nonnull align 8 dereferenceable(20) %6) #13
  call void @_ZN5clang16serialized_diags26SerializedDiagnosticReaderD2Ev(ptr noundef nonnull align 8 dereferenceable(8) %3) #13
  ret void
}

; Function Attrs: mustprogress nounwind uwtable
define internal void @_ZN12_GLOBAL__N_112SDiagsMergerD0Ev(ptr noundef nonnull align 8 dereferenceable(88) %0) unnamed_addr #0 align 2 {
  %2 = alloca ptr, align 8
  store ptr %0, ptr %2, align 8
  %3 = load ptr, ptr %2, align 8
  call void @_ZN12_GLOBAL__N_112SDiagsMergerD2Ev(ptr noundef nonnull align 8 dereferenceable(88) %3) #13
  call void @_ZdlPvm(ptr noundef %3, i64 noundef 88) #15
  ret void
}